(lp0
(S'Stimuli/OptPilot/diffeo/s1/Im_01_56.png'
p1
cnumpy.core.multiarray
scalar
p2
(cnumpy
dtype
p3
(S'f8'
p4
I0
I1
tp5
Rp6
(I3
S'<'
p7
NNNI-1
I-1
I0
tp8
bS'\x00\x00\x00EX\xaf\x0f\xc1'
p9
tp10
Rp11
tp12
a(S'Stimuli/OptPilot/diffeo/s1/Im_01_03.png'
p13
g2
(g6
S'\x00\x00\x00\x06X\xaf\x0f\xc1'
p14
tp15
Rp16
tp17
a(S'Stimuli/OptPilot/diffeo/s1/Im_01_27.png'
p18
g2
(g6
S'\x00\x00\x00\x8aW\xaf\x0f\xc1'
p19
tp20
Rp21
tp22
a(S'Stimuli/OptPilot/diffeo/s1/Im_01_36.png'
p23
g2
(g6
S'\x00\x00\x00\x8eW\xaf\x0f\xc1'
p24
tp25
Rp26
tp27
a(S'Stimuli/OptPilot/diffeo/s1/Im_01_48.png'
p28
g2
(g6
S'\x00\x00\x006X\xaf\x0f\xc1'
p29
tp30
Rp31
tp32
a(S'Stimuli/OptPilot/diffeo/s1/Im_01_47.png'
p33
g2
(g6
S'\x00\x00\x00\x98W\xaf\x0f\xc1'
p34
tp35
Rp36
tp37
a(S'Stimuli/OptPilot/diffeo/s1/Im_01_49.png'
p38
g2
(g6
S'\x00\x00\x00eZ\xaf\x0f\xc1'
p39
tp40
Rp41
tp42
a(S'Stimuli/OptPilot/diffeo/s1/Im_01_50.png'
p43
g2
(g6
S'\x00\x00\x80LX\xaf\x0f\xc1'
p44
tp45
Rp46
tp47
a(S'Stimuli/OptPilot/diffeo/s1/Im_01_66.png'
p48
g2
(g6
S'\x00\x00\x80\xadW\xaf\x0f\xc1'
p49
tp50
Rp51
tp52
a(S'Stimuli/OptPilot/diffeo/s1/Im_01_51.png'
p53
g2
(g6
S'\x00\x00\x80\x8dW\xaf\x0f\xc1'
p54
tp55
Rp56
tp57
a(S'Stimuli/OptPilot/diffeo/s1/Im_01_55.png'
p58
g2
(g6
S'\x00\x00\x80\x89Y\xaf\x0f\xc1'
p59
tp60
Rp61
tp62
a(S'Stimuli/OptPilot/diffeo/s1/Im_01_54.png'
p63
g2
(g6
S'\x00\x00\x00\x9fW\xaf\x0f\xc1'
p64
tp65
Rp66
tp67
a(S'Stimuli/OptPilot/diffeo/s1/Im_01_58.png'
p68
g2
(g6
S'\x00\x00\x00yV\xaf\x0f\xc1'
p69
tp70
Rp71
tp72
a(S'Stimuli/OptPilot/diffeo/s1/Im_01_53.png'
p73
g2
(g6
S'\x00\x00\x80NV\xaf\x0f\xc1'
p74
tp75
Rp76
tp77
a(S'Stimuli/OptPilot/diffeo/s1/Im_01_30.png'
p78
g2
(g6
S'\x00\x00\x00\xd3V\xaf\x0f\xc1'
p79
tp80
Rp81
tp82
a(S'Stimuli/OptPilot/diffeo/s1/Im_01_04.png'
p83
g2
(g6
S'\x00\x00\x00\xc7U\xaf\x0f\xc1'
p84
tp85
Rp86
tp87
a(S'Stimuli/OptPilot/diffeo/s1/Im_01_43.png'
p88
g2
(g6
S'\x00\x00\x80\x0cW\xaf\x0f\xc1'
p89
tp90
Rp91
tp92
a(S'Stimuli/OptPilot/diffeo/s1/Im_01_02.png'
p93
g2
(g6
S'\x00\x00\x00AX\xaf\x0f\xc1'
p94
tp95
Rp96
tp97
a(S'Stimuli/OptPilot/diffeo/s1/Im_01_01.png'
p98
g2
(g6
S'\x00\x00\x80\xb7U\xaf\x0f\xc1'
p99
tp100
Rp101
tp102
a(S'Stimuli/OptPilot/diffeo/s1/Im_01_69.png'
p103
g2
(g6
S'\x00\x00\x00\xbcV\xaf\x0f\xc1'
p104
tp105
Rp106
tp107
a(S'Stimuli/OptPilot/diffeo/s1/Im_01_10.png'
p108
g2
(g6
S'\x00\x00\x802U\xaf\x0f\xc1'
p109
tp110
Rp111
tp112
a(S'Stimuli/OptPilot/diffeo/s1/Im_01_75.png'
p113
g2
(g6
S'\x00\x00\x00\xd1U\xaf\x0f\xc1'
p114
tp115
Rp116
tp117
a(S'Stimuli/OptPilot/diffeo/s1/Im_01_22.png'
p118
g2
(g6
S'\x00\x00\x80\xe4T\xaf\x0f\xc1'
p119
tp120
Rp121
tp122
a(S'Stimuli/OptPilot/diffeo/s1/Im_01_40.png'
p123
g2
(g6
S'\x00\x00\x80\xb2S\xaf\x0f\xc1'
p124
tp125
Rp126
tp127
a(S'Stimuli/OptPilot/diffeo/s1/Im_01_62.png'
p128
g2
(g6
S'\x00\x00\x00\x18W\xaf\x0f\xc1'
p129
tp130
Rp131
tp132
a(S'Stimuli/OptPilot/diffeo/s1/Im_01_78.png'
p133
g2
(g6
S'\x00\x00\x80\xfbT\xaf\x0f\xc1'
p134
tp135
Rp136
tp137
a(S'Stimuli/OptPilot/diffeo/s1/Im_01_72.png'
p138
g2
(g6
S'\x00\x00\x00\x86T\xaf\x0f\xc1'
p139
tp140
Rp141
tp142
a(S'Stimuli/OptPilot/diffeo/s1/Im_01_07.png'
p143
g2
(g6
S'\x00\x00\x80\x97T\xaf\x0f\xc1'
p144
tp145
Rp146
tp147
a(S'Stimuli/OptPilot/diffeo/s1/Im_01_13.png'
p148
g2
(g6
S'\x00\x00\x00\x8eV\xaf\x0f\xc1'
p149
tp150
Rp151
tp152
a(S'Stimuli/OptPilot/diffeo/s1/Im_01_34.png'
p153
g2
(g6
S'\x00\x00\x80\xf6S\xaf\x0f\xc1'
p154
tp155
Rp156
tp157
a(S'Stimuli/OptPilot/diffeo/s1/Im_01_45.png'
p158
g2
(g6
S'\x00\x00\x00\x9cT\xaf\x0f\xc1'
p159
tp160
Rp161
tp162
a(S'Stimuli/OptPilot/diffeo/s1/Im_01_25.png'
p163
g2
(g6
S'\x00\x00\x00\x01S\xaf\x0f\xc1'
p164
tp165
Rp166
tp167
a(S'Stimuli/OptPilot/diffeo/s1/Im_01_64.png'
p168
g2
(g6
S'\x00\x00\x80}T\xaf\x0f\xc1'
p169
tp170
Rp171
tp172
a(S'Stimuli/OptPilot/diffeo/s1/Im_01_52.png'
p173
g2
(g6
S'\x00\x00\x80_S\xaf\x0f\xc1'
p174
tp175
Rp176
tp177
a(S'Stimuli/OptPilot/diffeo/s1/Im_01_28.png'
p178
g2
(g6
S'\x00\x00\x80\xc4R\xaf\x0f\xc1'
p179
tp180
Rp181
tp182
a(S'Stimuli/OptPilot/diffeo/s1/Im_01_67.png'
p183
g2
(g6
S'\x00\x00\x00\xa7R\xaf\x0f\xc1'
p184
tp185
Rp186
tp187
a(S'Stimuli/OptPilot/diffeo/s1/Im_01_46.png'
p188
g2
(g6
S'\x00\x00\x00\xadS\xaf\x0f\xc1'
p189
tp190
Rp191
tp192
a(S'Stimuli/OptPilot/diffeo/s1/Im_01_61.png'
p193
g2
(g6
S'\x00\x00\x00cR\xaf\x0f\xc1'
p194
tp195
Rp196
tp197
a(S'Stimuli/OptPilot/diffeo/s1/Im_01_12.png'
p198
g2
(g6
S'\x00\x00\x80GS\xaf\x0f\xc1'
p199
tp200
Rp201
tp202
a(S'Stimuli/OptPilot/diffeo/s1/Im_01_42.png'
p203
g2
(g6
S'\x00\x00\x007S\xaf\x0f\xc1'
p204
tp205
Rp206
tp207
a(S'Stimuli/OptPilot/diffeo/s1/Im_01_63.png'
p208
g2
(g6
S'\x00\x00\x00\xf2Q\xaf\x0f\xc1'
p209
tp210
Rp211
tp212
a(S'Stimuli/OptPilot/diffeo/s1/Im_01_31.png'
p213
g2
(g6
S'\x00\x00\x80\xb1Q\xaf\x0f\xc1'
p214
tp215
Rp216
tp217
a(S'Stimuli/OptPilot/diffeo/s1/Im_01_05.png'
p218
g2
(g6
S'\x00\x00\x00\x0bR\xaf\x0f\xc1'
p219
tp220
Rp221
tp222
a(S'Stimuli/OptPilot/diffeo/s1/Im_01_70.png'
p223
g2
(g6
S'\x00\x00\x80\xbaQ\xaf\x0f\xc1'
p224
tp225
Rp226
tp227
a(S'Stimuli/OptPilot/diffeo/s1/Im_01_57.png'
p228
g2
(g6
S'\x00\x00\x00\rR\xaf\x0f\xc1'
p229
tp230
Rp231
tp232
a(S'Stimuli/OptPilot/diffeo/s1/Im_01_44.png'
p233
g2
(g6
S'\x00\x00\x80\x94Q\xaf\x0f\xc1'
p234
tp235
Rp236
tp237
a(S'Stimuli/OptPilot/diffeo/s1/Im_01_14.png'
p238
g2
(g6
S'\x00\x00\x00\xc0R\xaf\x0f\xc1'
p239
tp240
Rp241
tp242
a(S'Stimuli/OptPilot/diffeo/s1/Im_01_76.png'
p243
g2
(g6
S'\x00\x00\x00\xcaQ\xaf\x0f\xc1'
p244
tp245
Rp246
tp247
a(S'Stimuli/OptPilot/diffeo/s1/Im_01_37.png'
p248
g2
(g6
S'\x00\x00\x00\xc7P\xaf\x0f\xc1'
p249
tp250
Rp251
tp252
a(S'Stimuli/OptPilot/diffeo/s1/Im_01_79.png'
p253
g2
(g6
S'\x00\x00\x00\x9aP\xaf\x0f\xc1'
p254
tp255
Rp256
tp257
a(S'Stimuli/OptPilot/diffeo/s1/Im_01_29.png'
p258
g2
(g6
S'\x00\x00\x807S\xaf\x0f\xc1'
p259
tp260
Rp261
tp262
a(S'Stimuli/OptPilot/diffeo/s1/Im_01_26.png'
p263
g2
(g6
S'\x00\x00\x80\\Q\xaf\x0f\xc1'
p264
tp265
Rp266
tp267
a(S'Stimuli/OptPilot/diffeo/s1/Im_01_09.png'
p268
g2
(g6
S'\x00\x00\x00\xc5Q\xaf\x0f\xc1'
p269
tp270
Rp271
tp272
a(S'Stimuli/OptPilot/diffeo/s1/Im_01_68.png'
p273
g2
(g6
S'\x00\x00\x00\xcfP\xaf\x0f\xc1'
p274
tp275
Rp276
tp277
a(S'Stimuli/OptPilot/diffeo/s1/Im_01_74.png'
p278
g2
(g6
S'\x00\x00\x80\xd6O\xaf\x0f\xc1'
p279
tp280
Rp281
tp282
a.